; Function Attrs: mustprogress nofree norecurse nosync nounwind willreturn memory(argmem: readwrite) uwtable
define dso_local void @LLVMSetTargetMachineFastISel(ptr nocapture noundef %0, i32 noundef %1) local_unnamed_addr #9 {
  %.not = icmp eq i32 %1, 0
  %3 = getelementptr inbounds i8, ptr %0, i64 880
  %4 = load i16, ptr %3, align 8
  %5 = select i1 %.not, i16 0, i16 2048
  %6 = and i16 %4, -2049
  %7 = or disjoint i16 %6, %5
  store i16 %7, ptr %3, align 8
  ret void
}